; Function Attrs: mustprogress nofree norecurse nosync nounwind willreturn memory(read, argmem: readwrite, inaccessiblemem: none) uwtable
define noundef zeroext i1 @_ZN3net16HpackInputStream15DecodeNextOctetEPh(ptr noundef nonnull align 8 captures(none) dereferenceable(33) %0, ptr noundef writeonly captures(none) %1) local_unnamed_addr #6 align 2 {
  %3 = getelementptr inbounds nuw i8, ptr %0, i64 8
  %4 = load i64, ptr %3, align 8, !tbaa !10
  %5 = icmp eq i64 %4, 0
  br i1 %5, label %6, label %8

6:                                                ; preds = %2
  %7 = getelementptr inbounds nuw i8, ptr %0, i64 32
  store i8 1, ptr %7, align 8, !tbaa !12
  br label %_ZN3net16HpackInputStream13PeekNextOctetEPh.exit.thread

8:                                                ; preds = %2
  %9 = getelementptr inbounds nuw i8, ptr %0, i64 16
  %10 = load i64, ptr %9, align 8, !tbaa !16
  %.not.i = icmp eq i64 %10, 0
  br i1 %.not.i, label %11, label %_ZN3net16HpackInputStream13PeekNextOctetEPh.exit.thread

11:                                               ; preds = %8
  %12 = load ptr, ptr %0, align 8, !tbaa !17
  %13 = load i8, ptr %12, align 1, !tbaa !18
  store i8 %13, ptr %1, align 1, !tbaa !18
  %14 = load ptr, ptr %0, align 8, !tbaa !17
  %15 = getelementptr inbounds nuw i8, ptr %14, i64 1
  store ptr %15, ptr %0, align 8, !tbaa !17
  %16 = load i64, ptr %3, align 8, !tbaa !10
  %17 = add i64 %16, -1
  store i64 %17, ptr %3, align 8, !tbaa !10
  %18 = getelementptr inbounds nuw i8, ptr %0, i64 28
  %19 = load i32, ptr %18, align 4, !tbaa !20
  %20 = add i32 %19, 1
  store i32 %20, ptr %18, align 4, !tbaa !20
  br label %_ZN3net16HpackInputStream13PeekNextOctetEPh.exit.thread

_ZN3net16HpackInputStream13PeekNextOctetEPh.exit.thread: ; preds = %8, %6, %11
  %.0.i4 = phi i1 [ true, %11 ], [ false, %6 ], [ false, %8 ]
  ret i1 %.0.i4
}